(lp0
(igfwi
Drawable
p1
(dp2
S'Texture'
p3
S'lolner.png'
p4
sS'Rotation'
p5
I0
sS'Scale'
p6
(I1
I1
tp7
sS'Pos'
p8
(I0
I0
tp9
sS'Poly'
p10
(igfwi
Polygon
p11
(dp12
S'colors'
p13
(lp14
sS'uvs'
p15
(lp16
I0
aI0
aI1
aI0
aI1
aI1
aI0
aI1
asS'verts'
p17
(lp18
F-0.5
aF-0.5
aF0.5
aF-0.5
aF0.5
aF0.5
aF-0.5
aF0.5
asg10
I0
sS'indexes'
p19
(lp20
I0
aI1
aI2
aI3
aI4
aI5
aI6
aI7
asbsba(igfwi
Drawable
p21
(dp22
g10
g11
sg5
I0
sg6
g7
sg8
g9
sg3
S'meeh.png'
p23
sba.