(lp0
(igfwi
Drawable
p1
(dp2
S'Texture'
p3
S'lolner.png'
p4
sS'Rotation'
p5
I0
sS'Scale'
p6
(I1
I1
tp7
sS'Pos'
p8
(I0
I0
tp9
sS'Poly'
p10
(igfwi
Polygon
p11
((lp13
F-0.5
aF-0.5
aF0.5
aF-0.5
aF0.5
aF0.5
aF-0.5
aF0.5
a(lp14
I0
aI1
aI2
aI3
aI4
aI5
aI6
aI7
a(lp15
(lp16
I0
aI0
aI1
aI0
aI1
aI1
aI0
aI1
atp17
bsba(igfwi
Drawable
p18
(dp19
g10
g11
sg5
I0
sg6
g7
sg8
g9
sg3
S'meeh.png'
p20
sba.